#include <math.h>
#include <stdio.h>
#include <stdlib.h>
#include <string.h>

int main()
{
 int i,j,n,a,t=0,flag,line=0;
 scanf("%d",&n);
 for(i=1;i<=n;i++)
 {
  flag=0;
  for(j=1;j<=n;j++)
  {
   scanf("%d",&a);
   if(a==0) {t++;flag=1;}
  }
  if(flag==1) line++;
 }
 printf("%d",(line-2)*(t-line*2)/2);
 return 0;
}
